target datalayout = "e-m:e-p270:32:32-p271:32:32-p272:64:64-i64:64-i128:128-f80:128-n8:16:32:64-S128"
target triple = "x86_64-pc-linux-gnu"

%struct.H5G_bt_it_lbi_t = type { %struct.H5G_bt_it_idx_common_t, ptr, ptr, i8 }
%struct.H5G_bt_it_idx_common_t = type { i64, i64, ptr }

@.str = private unnamed_addr constant [101 x i8] c"generated/home/dtcxzyw/WorkSpace/Projects/compilers/llvm-opt-benchmark/bench/hdf5/hdf5/src/H5Gstab.c\00", align 1
@H5E_SYM_g = external global i64, align 8
@H5E_CANTCONVERT_g = external global i64, align 8
@.str.31 = private unnamed_addr constant [45 x i8] c"unable to convert symbol table entry to link\00", align 1
@__func__.H5G__stab_lookup_by_idx_cb = private unnamed_addr constant [27 x i8] c"H5G__stab_lookup_by_idx_cb\00", align 1

; Function Attrs: nounwind uwtable
define internal i32 @H5G__stab_lookup_by_idx_cb(ptr noundef %0, ptr noundef %1) #0 {
  %3 = alloca ptr, align 8
  %4 = alloca ptr, align 8
  %5 = alloca ptr, align 8
  %6 = alloca i32, align 4
  %7 = alloca i8, align 1
  store ptr %0, ptr %3, align 8
  store ptr %1, ptr %4, align 8
  %8 = load ptr, ptr %4, align 8
  store ptr %8, ptr %5, align 8
  store i32 0, ptr %6, align 4
  store i8 0, ptr %7, align 1
  %9 = load ptr, ptr %3, align 8
  %10 = load ptr, ptr %5, align 8
  %11 = getelementptr inbounds %struct.H5G_bt_it_lbi_t, ptr %10, i32 0, i32 1
  %12 = load ptr, ptr %11, align 8
  %13 = load ptr, ptr %5, align 8
  %14 = getelementptr inbounds %struct.H5G_bt_it_lbi_t, ptr %13, i32 0, i32 2
  %15 = load ptr, ptr %14, align 8
  %16 = call i32 @H5G__ent_to_link(ptr noundef %9, ptr noundef %12, ptr noundef %15)
  %17 = icmp slt i32 %16, 0
  br i1 %17, label %18, label %33

18:                                               ; preds = %2
  br label %19

19:                                               ; preds = %18
  br label %20

20:                                               ; preds = %19
  br label %21

21:                                               ; preds = %20
  %22 = load i64, ptr @H5E_SYM_g, align 8
  %23 = load i64, ptr @H5E_CANTCONVERT_g, align 8
  %24 = call i32 (ptr, ptr, i32, i64, i64, ptr, ...) @H5E_printf_stack(ptr noundef @.str, ptr noundef @__func__.H5G__stab_lookup_by_idx_cb, i32 noundef 863, i64 noundef %22, i64 noundef %23, ptr noundef @.str.31)
  br label %25

25:                                               ; preds = %21
  store i8 1, ptr %7, align 1
  %26 = load i8, ptr %7, align 1
  %27 = trunc i8 %26 to i1
  %28 = zext i1 %27 to i8
  store i8 %28, ptr %7, align 1
  br label %29

29:                                               ; preds = %25
  br label %30

30:                                               ; preds = %29
  store i32 -1, ptr %6, align 4
  br label %36

31:                                               ; No predecessors!
  br label %32

32:                                               ; preds = %31
  br label %33

33:                                               ; preds = %32, %2
  %34 = load ptr, ptr %5, align 8
  %35 = getelementptr inbounds %struct.H5G_bt_it_lbi_t, ptr %34, i32 0, i32 3
  store i8 1, ptr %35, align 8
  br label %36

36:                                               ; preds = %33, %30
  %37 = load i32, ptr %6, align 4
  ret i32 %37
}