; Function Attrs: nounwind uwtable
define internal range(i32 -1, 1) i32 @H5G__stab_lookup_by_idx_cb(ptr noundef %0, ptr nocapture noundef %1) #0 {
  %3 = getelementptr inbounds i8, ptr %1, i64 24
  %4 = load ptr, ptr %3, align 8
  %5 = getelementptr inbounds i8, ptr %1, i64 32
  %6 = load ptr, ptr %5, align 8
  %7 = tail call i32 @H5G__ent_to_link(ptr noundef %0, ptr noundef %4, ptr noundef %6) #6
  %8 = icmp slt i32 %7, 0
  br i1 %8, label %9, label %13

9:                                                ; preds = %2
  %10 = load i64, ptr @H5E_SYM_g, align 8
  %11 = load i64, ptr @H5E_CANTCONVERT_g, align 8
  %12 = tail call i32 (ptr, ptr, i32, i64, i64, ptr, ...) @H5E_printf_stack(ptr noundef nonnull @.str, ptr noundef nonnull @__func__.H5G__stab_lookup_by_idx_cb, i32 noundef 863, i64 noundef %10, i64 noundef %11, ptr noundef nonnull @.str.31) #6
  br label %15

13:                                               ; preds = %2
  %14 = getelementptr inbounds i8, ptr %1, i64 40
  store i8 1, ptr %14, align 8
  br label %15

15:                                               ; preds = %13, %9
  %.0 = phi i32 [ -1, %9 ], [ 0, %13 ]
  ret i32 %.0
}